; Function Attrs: mustprogress uwtable
define hidden void @_ZN3smt17theory_array_full15set_prop_upwardEPNS_5enodeE(ptr noundef nonnull align 8 dereferenceable(608) %this, ptr noundef readonly %n) unnamed_addr #3 align 2 {
entry:
  %0 = load ptr, ptr %n, align 8
  %m_decl.i.i.i = getelementptr inbounds i8, ptr %0, i64 16
  %1 = load ptr, ptr %m_decl.i.i.i, align 8
  %m_info.i.i.i.i = getelementptr inbounds i8, ptr %1, i64 24
  %2 = load ptr, ptr %m_info.i.i.i.i, align 8
  %tobool.not.i.i.i.i = icmp eq ptr %2, null
  br i1 %tobool.not.i.i.i.i, label %if.end13, label %_ZNK3smt17theory_array_base8is_storeEPKNS_5enodeE.exit

_ZNK3smt17theory_array_base8is_storeEPKNS_5enodeE.exit: ; preds = %entry
  %m_id.i.i.i = getelementptr inbounds i8, ptr %this, i64 8
  %3 = load i32, ptr %m_id.i.i.i, align 8
  %4 = load i32, ptr %2, align 8
  %cmp.i.i.i.i.i = icmp eq i32 %4, %3
  %m_kind.i.i.i.i.i = getelementptr inbounds i8, ptr %2, i64 4
  %5 = load i32, ptr %m_kind.i.i.i.i.i, align 4
  %cmp2.i.i.i.i.i = icmp eq i32 %5, 0
  %6 = select i1 %cmp.i.i.i.i.i, i1 %cmp2.i.i.i.i.i, i1 false
  br i1 %6, label %if.then, label %_ZNK3smt17theory_array_base6is_mapEPKNS_5enodeE.exit

if.then:                                          ; preds = %_ZNK3smt17theory_array_base8is_storeEPKNS_5enodeE.exit
  %m_args.i = getelementptr inbounds i8, ptr %n, i64 112
  %7 = load ptr, ptr %m_args.i, align 8
  %call4 = tail call noundef i32 @_ZNK3smt5enode10get_th_varEi(ptr noundef nonnull align 8 dereferenceable(112) %7, i32 noundef %3)
  %vtable = load ptr, ptr %this, align 8
  %vfn = getelementptr inbounds i8, ptr %vtable, i64 376
  %8 = load ptr, ptr %vfn, align 8
  tail call void %8(ptr noundef nonnull align 8 dereferenceable(608) %this, i32 noundef %call4)
  br label %if.end13

_ZNK3smt17theory_array_base6is_mapEPKNS_5enodeE.exit: ; preds = %_ZNK3smt17theory_array_base8is_storeEPKNS_5enodeE.exit
  %cmp2.i.i.i.i.i14 = icmp eq i32 %5, 5
  %9 = select i1 %cmp.i.i.i.i.i, i1 %cmp2.i.i.i.i.i14, i1 false
  br i1 %9, label %if.then6, label %if.end13

if.then6:                                         ; preds = %_ZNK3smt17theory_array_base6is_mapEPKNS_5enodeE.exit
  %m_suppress_args.i.i = getelementptr inbounds i8, ptr %n, i64 44
  %bf.load.i.i = load i16, ptr %m_suppress_args.i.i, align 4
  %10 = and i16 %bf.load.i.i, 8
  %tobool.not.i.i = icmp eq i16 %10, 0
  br i1 %tobool.not.i.i, label %_ZNK3smt5enode4args3endEv.exit, label %if.end13

_ZNK3smt5enode4args3endEv.exit:                   ; preds = %if.then6
  %m_num_args.i.i.i = getelementptr inbounds i8, ptr %0, i64 24
  %11 = load i32, ptr %m_num_args.i.i.i, align 8
  %12 = zext i32 %11 to i64
  %add.ptr.i.idx = shl nuw nsw i64 %12, 3
  %13 = getelementptr i8, ptr %n, i64 %add.ptr.i.idx
  %add.ptr.i.ptr = getelementptr i8, ptr %13, i64 112
  %cmp.not19 = icmp eq i32 %11, 0
  br i1 %cmp.not19, label %if.end13, label %for.body.preheader

for.body.preheader:                               ; preds = %_ZNK3smt5enode4args3endEv.exit
  %m_args.i15.ptr = getelementptr inbounds i8, ptr %n, i64 112
  br label %for.body

for.body:                                         ; preds = %for.body.preheader, %for.body
  %__begin3.020 = phi ptr [ %incdec.ptr, %for.body ], [ %m_args.i15.ptr, %for.body.preheader ]
  %14 = load ptr, ptr %__begin3.020, align 8
  %15 = load i32, ptr %m_id.i.i.i, align 8
  %call10 = tail call noundef i32 @_ZNK3smt5enode10get_th_varEi(ptr noundef nonnull align 8 dereferenceable(112) %14, i32 noundef %15)
  %vtable11 = load ptr, ptr %this, align 8
  %vfn12 = getelementptr inbounds i8, ptr %vtable11, i64 376
  %16 = load ptr, ptr %vfn12, align 8
  tail call void %16(ptr noundef nonnull align 8 dereferenceable(608) %this, i32 noundef %call10)
  %incdec.ptr = getelementptr inbounds i8, ptr %__begin3.020, i64 8
  %cmp.not = icmp eq ptr %incdec.ptr, %add.ptr.i.ptr
  br i1 %cmp.not, label %if.end13, label %for.body

if.end13:                                         ; preds = %for.body, %if.then6, %_ZNK3smt5enode4args3endEv.exit, %entry, %_ZNK3smt17theory_array_base6is_mapEPKNS_5enodeE.exit, %if.then
  ret void
}